target datalayout = "e-m:e-p270:32:32-p271:32:32-p272:64:64-i64:64-i128:128-f80:128-n8:16:32:64-S128"
target triple = "x86_64-pc-linux-gnu"

%struct.IDAMemRec = type { ptr, double, ptr, ptr, i32, double, double, ptr, i32, i32, ptr, ptr, i32, i32, i32, ptr, ptr, i32, i32, double, double, ptr, i32, i32, i32, i32, ptr, ptr, i32, ptr, ptr, ptr, i32, double, i32, i32, double, ptr, ptr, ptr, i32, ptr, ptr, i32, i32, i32, double, ptr, ptr, ptr, [6 x ptr], [6 x double], [6 x double], [6 x double], [6 x double], [6 x double], ptr, ptr, ptr, ptr, ptr, ptr, ptr, ptr, ptr, ptr, ptr, ptr, ptr, ptr, ptr, ptr, ptr, [6 x ptr], ptr, ptr, ptr, ptr, [6 x ptr], ptr, ptr, ptr, ptr, ptr, ptr, ptr, ptr, ptr, ptr, ptr, ptr, ptr, ptr, ptr, ptr, [6 x ptr], ptr, ptr, ptr, ptr, ptr, double, ptr, ptr, i32, i32, i32, i32, i32, i32, i32, i32, double, double, double, i32, double, i32, i32, i32, i32, i32, double, double, double, double, double, double, double, double, double, double, double, double, double, double, double, double, double, i32, i32, i32, i32, i64, double, double, double, double, double, double, double, double, double, i64, i64, i64, i64, i64, i64, i64, i64, i64, i64, i64, i64, i64, i64, i64, i64, i64, i64, i64, i64, i64, i64, i64, i64, i64, i64, double, i32, i32, i32, i32, i32, i32, i32, i32, i32, i32, i32, i32, i32, ptr, i32, ptr, i32, ptr, i32, ptr, ptr, ptr, ptr, ptr, ptr, i32, i32, ptr, ptr, ptr, ptr, ptr, ptr, ptr, double, i32, i32, ptr, i32, ptr, ptr, double, double, double, ptr, ptr, ptr, double, double, i32, i32, i64, ptr, i32, ptr, [5 x double], ptr, ptr, i32, ptr, i32 }
%struct._generic_N_Vector = type { ptr, ptr, ptr }
%struct._N_VectorContent_SensWrapper = type { ptr, i32, i32 }

@.str = private unnamed_addr constant [119 x i8] c"generated/home/dtcxzyw/WorkSpace/Projects/compilers/llvm-opt-benchmark/bench/sundials/sundials/src/idas/idas_nls_stg.c\00", align 1
@.str.1 = private unnamed_addr constant [24 x i8] c"ida_mem = NULL illegal.\00", align 1
@__func__.idaNlsLSolveSensStg = private unnamed_addr constant [20 x i8] c"idaNlsLSolveSensStg\00", align 1

; Function Attrs: nounwind uwtable
define internal i32 @idaNlsLSolveSensStg(ptr noundef %0, ptr noundef %1) #0 {
  %3 = alloca i32, align 4
  %4 = alloca ptr, align 8
  %5 = alloca ptr, align 8
  %6 = alloca ptr, align 8
  %7 = alloca i32, align 4
  %8 = alloca i32, align 4
  %9 = alloca i32, align 4
  store ptr %0, ptr %4, align 8, !tbaa !40
  store ptr %1, ptr %5, align 8, !tbaa !3
  call void @llvm.lifetime.start.p0(i64 8, ptr %6) #3
  call void @llvm.lifetime.start.p0(i64 4, ptr %7) #3
  call void @llvm.lifetime.start.p0(i64 4, ptr %8) #3
  %10 = load ptr, ptr %5, align 8, !tbaa !3
  %11 = icmp eq ptr %10, null
  br i1 %11, label %12, label %13

12:                                               ; preds = %2
  call void (ptr, i32, i32, ptr, ptr, ptr, ...) @IDAProcessError(ptr noundef null, i32 noundef -20, i32 noundef 276, ptr noundef @__func__.idaNlsLSolveSensStg, ptr noundef @.str, ptr noundef @.str.1)
  store i32 -20, ptr %3, align 4
  store i32 1, ptr %9, align 4
  br label %64

13:                                               ; preds = %2
  %14 = load ptr, ptr %5, align 8, !tbaa !3
  store ptr %14, ptr %6, align 8, !tbaa !9
  store i32 0, ptr %8, align 4, !tbaa !32
  br label %15

15:                                               ; preds = %60, %13
  %16 = load i32, ptr %8, align 4, !tbaa !32
  %17 = load ptr, ptr %6, align 8, !tbaa !9
  %18 = getelementptr inbounds nuw %struct.IDAMemRec, ptr %17, i32 0, i32 24
  %19 = load i32, ptr %18, align 8, !tbaa !34
  %20 = icmp slt i32 %16, %19
  br i1 %20, label %21, label %63

21:                                               ; preds = %15
  %22 = load ptr, ptr %6, align 8, !tbaa !9
  %23 = getelementptr inbounds nuw %struct.IDAMemRec, ptr %22, i32 0, i32 210
  %24 = load ptr, ptr %23, align 8, !tbaa !67
  %25 = load ptr, ptr %6, align 8, !tbaa !9
  %26 = load ptr, ptr %4, align 8, !tbaa !40
  %27 = getelementptr inbounds nuw %struct._generic_N_Vector, ptr %26, i32 0, i32 0
  %28 = load ptr, ptr %27, align 8, !tbaa !41
  %29 = getelementptr inbounds nuw %struct._N_VectorContent_SensWrapper, ptr %28, i32 0, i32 0
  %30 = load ptr, ptr %29, align 8, !tbaa !44
  %31 = load i32, ptr %8, align 4, !tbaa !32
  %32 = sext i32 %31 to i64
  %33 = getelementptr inbounds ptr, ptr %30, i64 %32
  %34 = load ptr, ptr %33, align 8, !tbaa !40
  %35 = load ptr, ptr %6, align 8, !tbaa !9
  %36 = getelementptr inbounds nuw %struct.IDAMemRec, ptr %35, i32 0, i32 79
  %37 = load ptr, ptr %36, align 8, !tbaa !47
  %38 = load i32, ptr %8, align 4, !tbaa !32
  %39 = sext i32 %38 to i64
  %40 = getelementptr inbounds ptr, ptr %37, i64 %39
  %41 = load ptr, ptr %40, align 8, !tbaa !40
  %42 = load ptr, ptr %6, align 8, !tbaa !9
  %43 = getelementptr inbounds nuw %struct.IDAMemRec, ptr %42, i32 0, i32 57
  %44 = load ptr, ptr %43, align 8, !tbaa !54
  %45 = load ptr, ptr %6, align 8, !tbaa !9
  %46 = getelementptr inbounds nuw %struct.IDAMemRec, ptr %45, i32 0, i32 58
  %47 = load ptr, ptr %46, align 8, !tbaa !55
  %48 = load ptr, ptr %6, align 8, !tbaa !9
  %49 = getelementptr inbounds nuw %struct.IDAMemRec, ptr %48, i32 0, i32 61
  %50 = load ptr, ptr %49, align 8, !tbaa !56
  %51 = call i32 %24(ptr noundef %25, ptr noundef %34, ptr noundef %41, ptr noundef %44, ptr noundef %47, ptr noundef %50)
  store i32 %51, ptr %7, align 4, !tbaa !32
  %52 = load i32, ptr %7, align 4, !tbaa !32
  %53 = icmp slt i32 %52, 0
  br i1 %53, label %54, label %55

54:                                               ; preds = %21
  store i32 -7, ptr %3, align 4
  store i32 1, ptr %9, align 4
  br label %64

55:                                               ; preds = %21
  %56 = load i32, ptr %7, align 4, !tbaa !32
  %57 = icmp sgt i32 %56, 0
  br i1 %57, label %58, label %59

58:                                               ; preds = %55
  store i32 3, ptr %3, align 4
  store i32 1, ptr %9, align 4
  br label %64

59:                                               ; preds = %55
  br label %60

60:                                               ; preds = %59
  %61 = load i32, ptr %8, align 4, !tbaa !32
  %62 = add nsw i32 %61, 1
  store i32 %62, ptr %8, align 4, !tbaa !32
  br label %15

63:                                               ; preds = %15
  store i32 0, ptr %3, align 4
  store i32 1, ptr %9, align 4
  br label %64

64:                                               ; preds = %63, %58, %54, %12
  call void @llvm.lifetime.end.p0(i64 4, ptr %8) #3
  call void @llvm.lifetime.end.p0(i64 4, ptr %7) #3
  call void @llvm.lifetime.end.p0(i64 8, ptr %6) #3
  %65 = load i32, ptr %3, align 4
  ret i32 %65
}