; Function Attrs: nounwind uwtable
define internal range(i32 -20, 4) i32 @idaNlsLSolveSensStg(ptr noundef readonly captures(none) %0, ptr noundef %1) #0 {
  %3 = icmp eq ptr %1, null
  br i1 %3, label %12, label %.preheader

.preheader:                                       ; preds = %2
  %4 = getelementptr inbounds nuw i8, ptr %1, i64 1864
  %5 = getelementptr inbounds nuw i8, ptr %1, i64 160
  %6 = load i32, ptr %5, align 8, !tbaa !29
  %7 = icmp sgt i32 %6, 0
  br i1 %7, label %.lr.ph, label %.loopexit

.lr.ph:                                           ; preds = %.preheader
  %8 = getelementptr inbounds nuw i8, ptr %1, i64 896
  %9 = getelementptr inbounds nuw i8, ptr %1, i64 640
  %10 = getelementptr inbounds nuw i8, ptr %1, i64 648
  %11 = getelementptr inbounds nuw i8, ptr %1, i64 672
  br label %17

12:                                               ; preds = %2
  tail call void (ptr, i32, i32, ptr, ptr, ptr, ...) @IDAProcessError(ptr noundef null, i32 noundef -20, i32 noundef 276, ptr noundef nonnull @__func__.idaNlsLSolveSensStg, ptr noundef nonnull @.str, ptr noundef nonnull @.str.1) #3
  br label %.loopexit

13:                                               ; preds = %31
  %indvars.iv.next = add nuw nsw i64 %indvars.iv, 1
  %14 = load i32, ptr %5, align 8, !tbaa !29
  %15 = sext i32 %14 to i64
  %16 = icmp slt i64 %indvars.iv.next, %15
  br i1 %16, label %17, label %.loopexit

17:                                               ; preds = %.lr.ph, %13
  %indvars.iv = phi i64 [ 0, %.lr.ph ], [ %indvars.iv.next, %13 ]
  %18 = load ptr, ptr %4, align 8, !tbaa !62
  %19 = load ptr, ptr %0, align 8, !tbaa !38
  %20 = load ptr, ptr %19, align 8, !tbaa !41
  %21 = getelementptr inbounds nuw ptr, ptr %20, i64 %indvars.iv
  %22 = load ptr, ptr %21, align 8, !tbaa !37
  %23 = load ptr, ptr %8, align 8, !tbaa !36
  %24 = getelementptr inbounds nuw ptr, ptr %23, i64 %indvars.iv
  %25 = load ptr, ptr %24, align 8, !tbaa !37
  %26 = load ptr, ptr %9, align 8, !tbaa !49
  %27 = load ptr, ptr %10, align 8, !tbaa !50
  %28 = load ptr, ptr %11, align 8, !tbaa !51
  %29 = tail call i32 %18(ptr noundef nonnull %1, ptr noundef %22, ptr noundef %25, ptr noundef %26, ptr noundef %27, ptr noundef %28) #3
  %30 = icmp slt i32 %29, 0
  br i1 %30, label %.loopexit, label %31

31:                                               ; preds = %17
  %.not = icmp eq i32 %29, 0
  br i1 %.not, label %13, label %.loopexit

.loopexit:                                        ; preds = %17, %31, %13, %.preheader, %12
  %.016 = phi i32 [ -20, %12 ], [ 0, %.preheader ], [ -7, %17 ], [ 3, %31 ], [ 0, %13 ]
  ret i32 %.016
}